target datalayout = "e-m:e-p270:32:32-p271:32:32-p272:64:64-i64:64-i128:128-f80:128-n8:16:32:64-S128"
target triple = "x86_64-pc-linux-gnu"

%struct.DdManager = type { %struct.DdNode, ptr, ptr, ptr, ptr, ptr, ptr, ptr, i32, i32, double, double, double, i32, i32, i32, i32, i32, i32, ptr, ptr, %struct.DdSubtable, i32, i32, i32, i32, i32, i32, i32, double, i32, i32, i32, ptr, i64, double, i32, ptr, ptr, ptr, ptr, ptr, ptr, ptr, i32, ptr, ptr, ptr, ptr, ptr, ptr, i32, i32, i32, double, i32, i32, i32, i32, double, double, i32, i32, i32, i32, i32, i32, i32, i32, i32, ptr, ptr, i32, i32, i32, i32, i32, i32, ptr, ptr, ptr, ptr, ptr, ptr, ptr, ptr, i32, i64, i64, i64, i32, i64, i64, double, double, double, double, double, double, i32, ptr, ptr, i64 }
%struct.DdNode = type { i32, i32, ptr, %union.anon, i64 }
%union.anon = type { %struct.DdChildren }
%struct.DdChildren = type { ptr, ptr }
%struct.DdSubtable = type { ptr, i32, i32, i32, i32, i32, i32, i32, i32, i32, i32, i32 }
%struct.DdCache = type { ptr, ptr, i64, ptr, i32 }

; Function Attrs: nounwind uwtable
define double @Cudd_ReadCacheUsedSlots(ptr noundef %0) #0 {
  %2 = alloca ptr, align 8
  %3 = alloca i64, align 8
  %4 = alloca i32, align 4
  %5 = alloca ptr, align 8
  %6 = alloca i32, align 4
  store ptr %0, ptr %2, align 8
  store i64 0, ptr %3, align 8
  %7 = load ptr, ptr %2, align 8
  %8 = getelementptr inbounds %struct.DdManager, ptr %7, i32 0, i32 8
  %9 = load i32, ptr %8, align 8
  store i32 %9, ptr %4, align 4
  %10 = load ptr, ptr %2, align 8
  %11 = getelementptr inbounds %struct.DdManager, ptr %10, i32 0, i32 7
  %12 = load ptr, ptr %11, align 8
  store ptr %12, ptr %5, align 8
  store i32 0, ptr %6, align 4
  br label %13

13:                                               ; preds = %29, %1
  %14 = load i32, ptr %6, align 4
  %15 = load i32, ptr %4, align 4
  %16 = icmp slt i32 %14, %15
  br i1 %16, label %17, label %32

17:                                               ; preds = %13
  %18 = load ptr, ptr %5, align 8
  %19 = load i32, ptr %6, align 4
  %20 = sext i32 %19 to i64
  %21 = getelementptr inbounds %struct.DdCache, ptr %18, i64 %20
  %22 = getelementptr inbounds %struct.DdCache, ptr %21, i32 0, i32 2
  %23 = load i64, ptr %22, align 8
  %24 = icmp ne i64 %23, 0
  %25 = zext i1 %24 to i32
  %26 = sext i32 %25 to i64
  %27 = load i64, ptr %3, align 8
  %28 = add i64 %27, %26
  store i64 %28, ptr %3, align 8
  br label %29

29:                                               ; preds = %17
  %30 = load i32, ptr %6, align 4
  %31 = add nsw i32 %30, 1
  store i32 %31, ptr %6, align 4
  br label %13, !llvm.loop !21

32:                                               ; preds = %13
  %33 = load i64, ptr %3, align 8
  %34 = uitofp i64 %33 to double
  %35 = load ptr, ptr %2, align 8
  %36 = getelementptr inbounds %struct.DdManager, ptr %35, i32 0, i32 8
  %37 = load i32, ptr %36, align 8
  %38 = uitofp i32 %37 to double
  %39 = fdiv double %34, %38
  ret double %39
}