; Function Attrs: nofree norecurse nosync nounwind memory(read, inaccessiblemem: none) uwtable
define double @Cudd_ReadCacheUsedSlots(ptr noundef readonly captures(none) %0) local_unnamed_addr #9 {
  %2 = getelementptr inbounds nuw i8, ptr %0, i64 96
  %3 = load i32, ptr %2, align 8
  %4 = getelementptr inbounds nuw i8, ptr %0, i64 88
  %5 = load ptr, ptr %4, align 8
  %6 = icmp sgt i32 %3, 0
  br i1 %6, label %.lr.ph.preheader, label %._crit_edge

.lr.ph.preheader:                                 ; preds = %1
  %wide.trip.count = zext nneg i32 %3 to i64
  br label %.lr.ph

.lr.ph:                                           ; preds = %.lr.ph.preheader, %.lr.ph
  %indvars.iv = phi i64 [ 0, %.lr.ph.preheader ], [ %indvars.iv.next, %.lr.ph ]
  %.0910 = phi i64 [ 0, %.lr.ph.preheader ], [ %11, %.lr.ph ]
  %7 = getelementptr inbounds nuw %struct.DdCache, ptr %5, i64 %indvars.iv, i32 2
  %8 = load i64, ptr %7, align 8
  %9 = icmp ne i64 %8, 0
  %10 = zext i1 %9 to i64
  %11 = add i64 %.0910, %10
  %indvars.iv.next = add nuw nsw i64 %indvars.iv, 1
  %exitcond.not = icmp eq i64 %indvars.iv.next, %wide.trip.count
  br i1 %exitcond.not, label %._crit_edge.loopexit, label %.lr.ph, !llvm.loop !20

._crit_edge.loopexit:                             ; preds = %.lr.ph
  %12 = uitofp i64 %11 to double
  br label %._crit_edge

._crit_edge:                                      ; preds = %._crit_edge.loopexit, %1
  %.09.lcssa = phi double [ 0.000000e+00, %1 ], [ %12, %._crit_edge.loopexit ]
  %13 = uitofp i32 %3 to double
  %14 = fdiv double %.09.lcssa, %13
  ret double %14
}